ccopy_reg
_reconstructor
p0
(ctextblob.classifiers
NaiveBayesClassifier
p1
c__builtin__
object
p2
Ntp3
Rp4
(dp5
S'format_kwargs'
p6
(dp7
sS'train_features'
p8
(lp9
((dp10
Vcontains(apologies)
p11
I00
sVcontains(add)
p12
I00
sVcontains(call)
p13
I00
sVcontains(Morning)
p14
I00
sVcontains(wrong)
p15
I00
sVcontains(how)
p16
I00
sVcontains(that)
p17
I00
sVcontains(on)
p18
I00
sVcontains(My)
p19
I00
sVcontains(account)
p20
I00
sVcontains(the)
p21
I00
sVcontains(bye)
p22
I00
sVcontains(remove)
p23
I00
sVcontains(had)
p24
I00
sVcontains(list)
p25
I00
sVcontains(logs)
p26
I00
sVcontains(bundle)
p27
I00
sVcontains(to)
p28
I00
sVcontains(I)
p29
I00
sVcontains(Hi)
p30
I01
sVcontains(is)
p31
I00
sVcontains(am)
p32
I00
sVcontains(Good)
p33
I00
sVcontains(you)
p34
I00
sVcontains(Hello)
p35
I00
sVcontains(sorry)
p36
I00
sVcontains(Greatings)
p37
I00
sVcontains(out)
p38
I00
sVcontains(review)
p39
I00
sVcontains(i)
p40
I00
sVcontains(mistake)
p41
I00
sVcontains(thank)
p42
I00
sVcontains(good)
p43
I00
sVcontains(was)
p44
I00
sVcontains(my)
p45
I00
sVcontains(what)
p46
I00
sVcontains(are)
p47
I00
sVcontains(offer)
p48
I00
sVwelcome
p49
tp50
a((dp51
Vcontains(apologies)
p52
I00
sVcontains(add)
p53
I00
sVcontains(call)
p54
I00
sVcontains(Morning)
p55
I01
sVcontains(wrong)
p56
I00
sVcontains(how)
p57
I00
sVcontains(that)
p58
I00
sVcontains(on)
p59
I00
sVcontains(My)
p60
I00
sVcontains(account)
p61
I00
sVcontains(the)
p62
I00
sVcontains(bye)
p63
I00
sVcontains(remove)
p64
I00
sVcontains(had)
p65
I00
sVcontains(list)
p66
I00
sVcontains(logs)
p67
I00
sVcontains(bundle)
p68
I00
sVcontains(to)
p69
I00
sVcontains(I)
p70
I00
sVcontains(Hi)
p71
I00
sVcontains(is)
p72
I00
sVcontains(am)
p73
I00
sVcontains(Good)
p74
I01
sVcontains(you)
p75
I00
sVcontains(Hello)
p76
I00
sVcontains(sorry)
p77
I00
sVcontains(Greatings)
p78
I00
sVcontains(out)
p79
I00
sVcontains(review)
p80
I00
sVcontains(i)
p81
I00
sVcontains(mistake)
p82
I00
sVcontains(thank)
p83
I00
sVcontains(good)
p84
I00
sVcontains(was)
p85
I00
sVcontains(my)
p86
I00
sVcontains(what)
p87
I00
sVcontains(are)
p88
I00
sVcontains(offer)
p89
I00
sVwelcome
p90
tp91
a((dp92
Vcontains(apologies)
p93
I00
sVcontains(add)
p94
I00
sVcontains(call)
p95
I00
sVcontains(Morning)
p96
I00
sVcontains(wrong)
p97
I00
sVcontains(how)
p98
I00
sVcontains(that)
p99
I00
sVcontains(on)
p100
I00
sVcontains(My)
p101
I00
sVcontains(account)
p102
I00
sVcontains(the)
p103
I00
sVcontains(bye)
p104
I00
sVcontains(remove)
p105
I00
sVcontains(had)
p106
I00
sVcontains(list)
p107
I00
sVcontains(logs)
p108
I00
sVcontains(bundle)
p109
I00
sVcontains(to)
p110
I00
sVcontains(I)
p111
I00
sVcontains(Hi)
p112
I00
sVcontains(is)
p113
I00
sVcontains(am)
p114
I00
sVcontains(Good)
p115
I00
sVcontains(you)
p116
I00
sVcontains(Hello)
p117
I01
sVcontains(sorry)
p118
I00
sVcontains(Greatings)
p119
I00
sVcontains(out)
p120
I00
sVcontains(review)
p121
I00
sVcontains(i)
p122
I00
sVcontains(mistake)
p123
I00
sVcontains(thank)
p124
I00
sVcontains(good)
p125
I00
sVcontains(was)
p126
I00
sVcontains(my)
p127
I00
sVcontains(what)
p128
I00
sVcontains(are)
p129
I00
sVcontains(offer)
p130
I00
sVwelcome
p131
tp132
a((dp133
Vcontains(apologies)
p134
I00
sVcontains(add)
p135
I00
sVcontains(call)
p136
I00
sVcontains(Morning)
p137
I00
sVcontains(wrong)
p138
I00
sVcontains(how)
p139
I00
sVcontains(that)
p140
I00
sVcontains(on)
p141
I00
sVcontains(My)
p142
I00
sVcontains(account)
p143
I00
sVcontains(the)
p144
I00
sVcontains(bye)
p145
I00
sVcontains(remove)
p146
I00
sVcontains(had)
p147
I00
sVcontains(list)
p148
I00
sVcontains(logs)
p149
I00
sVcontains(bundle)
p150
I00
sVcontains(to)
p151
I00
sVcontains(I)
p152
I00
sVcontains(Hi)
p153
I00
sVcontains(is)
p154
I00
sVcontains(am)
p155
I00
sVcontains(Good)
p156
I00
sVcontains(you)
p157
I00
sVcontains(Hello)
p158
I00
sVcontains(sorry)
p159
I00
sVcontains(Greatings)
p160
I01
sVcontains(out)
p161
I00
sVcontains(review)
p162
I00
sVcontains(i)
p163
I00
sVcontains(mistake)
p164
I00
sVcontains(thank)
p165
I00
sVcontains(good)
p166
I00
sVcontains(was)
p167
I00
sVcontains(my)
p168
I00
sVcontains(what)
p169
I00
sVcontains(are)
p170
I00
sVcontains(offer)
p171
I00
sVwelcome
p172
tp173
a((dp174
Vcontains(apologies)
p175
I00
sVcontains(add)
p176
I00
sVcontains(call)
p177
I00
sVcontains(Morning)
p178
I00
sVcontains(wrong)
p179
I00
sVcontains(how)
p180
I00
sVcontains(that)
p181
I00
sVcontains(on)
p182
I00
sVcontains(My)
p183
I00
sVcontains(account)
p184
I01
sVcontains(the)
p185
I00
sVcontains(bye)
p186
I00
sVcontains(remove)
p187
I00
sVcontains(had)
p188
I00
sVcontains(list)
p189
I00
sVcontains(logs)
p190
I00
sVcontains(bundle)
p191
I00
sVcontains(to)
p192
I00
sVcontains(I)
p193
I00
sVcontains(Hi)
p194
I00
sVcontains(is)
p195
I01
sVcontains(am)
p196
I00
sVcontains(Good)
p197
I00
sVcontains(you)
p198
I00
sVcontains(Hello)
p199
I00
sVcontains(sorry)
p200
I00
sVcontains(Greatings)
p201
I00
sVcontains(out)
p202
I00
sVcontains(review)
p203
I01
sVcontains(i)
p204
I00
sVcontains(mistake)
p205
I00
sVcontains(thank)
p206
I00
sVcontains(good)
p207
I00
sVcontains(was)
p208
I00
sVcontains(my)
p209
I01
sVcontains(what)
p210
I01
sVcontains(are)
p211
I00
sVcontains(offer)
p212
I00
sVaccountreview
p213
tp214
a((dp215
Vcontains(apologies)
p216
I00
sVcontains(add)
p217
I00
sVcontains(call)
p218
I00
sVcontains(Morning)
p219
I00
sVcontains(wrong)
p220
I00
sVcontains(how)
p221
I00
sVcontains(that)
p222
I00
sVcontains(on)
p223
I00
sVcontains(My)
p224
I00
sVcontains(account)
p225
I01
sVcontains(the)
p226
I00
sVcontains(bye)
p227
I00
sVcontains(remove)
p228
I00
sVcontains(had)
p229
I00
sVcontains(list)
p230
I00
sVcontains(logs)
p231
I00
sVcontains(bundle)
p232
I00
sVcontains(to)
p233
I00
sVcontains(I)
p234
I00
sVcontains(Hi)
p235
I00
sVcontains(is)
p236
I00
sVcontains(am)
p237
I00
sVcontains(Good)
p238
I00
sVcontains(you)
p239
I00
sVcontains(Hello)
p240
I00
sVcontains(sorry)
p241
I00
sVcontains(Greatings)
p242
I00
sVcontains(out)
p243
I00
sVcontains(review)
p244
I01
sVcontains(i)
p245
I00
sVcontains(mistake)
p246
I00
sVcontains(thank)
p247
I00
sVcontains(good)
p248
I00
sVcontains(was)
p249
I00
sVcontains(my)
p250
I01
sVcontains(what)
p251
I00
sVcontains(are)
p252
I00
sVcontains(offer)
p253
I00
sVaccountreview
p254
tp255
a((dp256
Vcontains(apologies)
p257
I00
sVcontains(add)
p258
I01
sVcontains(call)
p259
I00
sVcontains(Morning)
p260
I00
sVcontains(wrong)
p261
I00
sVcontains(how)
p262
I01
sVcontains(that)
p263
I00
sVcontains(on)
p264
I00
sVcontains(My)
p265
I00
sVcontains(account)
p266
I01
sVcontains(the)
p267
I00
sVcontains(bye)
p268
I00
sVcontains(remove)
p269
I00
sVcontains(had)
p270
I00
sVcontains(list)
p271
I00
sVcontains(logs)
p272
I00
sVcontains(bundle)
p273
I00
sVcontains(to)
p274
I01
sVcontains(I)
p275
I00
sVcontains(Hi)
p276
I00
sVcontains(is)
p277
I00
sVcontains(am)
p278
I00
sVcontains(Good)
p279
I00
sVcontains(you)
p280
I00
sVcontains(Hello)
p281
I00
sVcontains(sorry)
p282
I00
sVcontains(Greatings)
p283
I00
sVcontains(out)
p284
I00
sVcontains(review)
p285
I00
sVcontains(i)
p286
I00
sVcontains(mistake)
p287
I00
sVcontains(thank)
p288
I00
sVcontains(good)
p289
I00
sVcontains(was)
p290
I00
sVcontains(my)
p291
I01
sVcontains(what)
p292
I00
sVcontains(are)
p293
I00
sVcontains(offer)
p294
I00
sVaddaccount
p295
tp296
a((dp297
Vcontains(apologies)
p298
I00
sVcontains(add)
p299
I01
sVcontains(call)
p300
I00
sVcontains(Morning)
p301
I00
sVcontains(wrong)
p302
I00
sVcontains(how)
p303
I00
sVcontains(that)
p304
I00
sVcontains(on)
p305
I00
sVcontains(My)
p306
I00
sVcontains(account)
p307
I01
sVcontains(the)
p308
I00
sVcontains(bye)
p309
I00
sVcontains(remove)
p310
I00
sVcontains(had)
p311
I00
sVcontains(list)
p312
I00
sVcontains(logs)
p313
I00
sVcontains(bundle)
p314
I00
sVcontains(to)
p315
I00
sVcontains(I)
p316
I00
sVcontains(Hi)
p317
I00
sVcontains(is)
p318
I00
sVcontains(am)
p319
I00
sVcontains(Good)
p320
I00
sVcontains(you)
p321
I00
sVcontains(Hello)
p322
I00
sVcontains(sorry)
p323
I00
sVcontains(Greatings)
p324
I00
sVcontains(out)
p325
I00
sVcontains(review)
p326
I00
sVcontains(i)
p327
I00
sVcontains(mistake)
p328
I00
sVcontains(thank)
p329
I00
sVcontains(good)
p330
I00
sVcontains(was)
p331
I00
sVcontains(my)
p332
I01
sVcontains(what)
p333
I00
sVcontains(are)
p334
I00
sVcontains(offer)
p335
I00
sVaddaccount
p336
tp337
a((dp338
Vcontains(apologies)
p339
I00
sVcontains(add)
p340
I00
sVcontains(call)
p341
I00
sVcontains(Morning)
p342
I00
sVcontains(wrong)
p343
I00
sVcontains(how)
p344
I01
sVcontains(that)
p345
I00
sVcontains(on)
p346
I00
sVcontains(My)
p347
I00
sVcontains(account)
p348
I01
sVcontains(the)
p349
I00
sVcontains(bye)
p350
I00
sVcontains(remove)
p351
I01
sVcontains(had)
p352
I00
sVcontains(list)
p353
I00
sVcontains(logs)
p354
I00
sVcontains(bundle)
p355
I00
sVcontains(to)
p356
I01
sVcontains(I)
p357
I00
sVcontains(Hi)
p358
I00
sVcontains(is)
p359
I00
sVcontains(am)
p360
I00
sVcontains(Good)
p361
I00
sVcontains(you)
p362
I00
sVcontains(Hello)
p363
I00
sVcontains(sorry)
p364
I00
sVcontains(Greatings)
p365
I00
sVcontains(out)
p366
I00
sVcontains(review)
p367
I00
sVcontains(i)
p368
I00
sVcontains(mistake)
p369
I00
sVcontains(thank)
p370
I00
sVcontains(good)
p371
I00
sVcontains(was)
p372
I00
sVcontains(my)
p373
I01
sVcontains(what)
p374
I00
sVcontains(are)
p375
I00
sVcontains(offer)
p376
I00
sVremoveaccount
p377
tp378
a((dp379
Vcontains(apologies)
p380
I00
sVcontains(add)
p381
I00
sVcontains(call)
p382
I00
sVcontains(Morning)
p383
I00
sVcontains(wrong)
p384
I00
sVcontains(how)
p385
I00
sVcontains(that)
p386
I00
sVcontains(on)
p387
I00
sVcontains(My)
p388
I00
sVcontains(account)
p389
I01
sVcontains(the)
p390
I00
sVcontains(bye)
p391
I00
sVcontains(remove)
p392
I01
sVcontains(had)
p393
I00
sVcontains(list)
p394
I00
sVcontains(logs)
p395
I00
sVcontains(bundle)
p396
I00
sVcontains(to)
p397
I00
sVcontains(I)
p398
I00
sVcontains(Hi)
p399
I00
sVcontains(is)
p400
I00
sVcontains(am)
p401
I00
sVcontains(Good)
p402
I00
sVcontains(you)
p403
I00
sVcontains(Hello)
p404
I00
sVcontains(sorry)
p405
I00
sVcontains(Greatings)
p406
I00
sVcontains(out)
p407
I00
sVcontains(review)
p408
I00
sVcontains(i)
p409
I00
sVcontains(mistake)
p410
I00
sVcontains(thank)
p411
I00
sVcontains(good)
p412
I00
sVcontains(was)
p413
I00
sVcontains(my)
p414
I01
sVcontains(what)
p415
I00
sVcontains(are)
p416
I00
sVcontains(offer)
p417
I00
sVremoveaccount
p418
tp419
a((dp420
Vcontains(apologies)
p421
I00
sVcontains(add)
p422
I00
sVcontains(call)
p423
I00
sVcontains(Morning)
p424
I00
sVcontains(wrong)
p425
I00
sVcontains(how)
p426
I00
sVcontains(that)
p427
I00
sVcontains(on)
p428
I00
sVcontains(My)
p429
I01
sVcontains(account)
p430
I00
sVcontains(the)
p431
I00
sVcontains(bye)
p432
I00
sVcontains(remove)
p433
I00
sVcontains(had)
p434
I00
sVcontains(list)
p435
I00
sVcontains(logs)
p436
I00
sVcontains(bundle)
p437
I00
sVcontains(to)
p438
I00
sVcontains(I)
p439
I00
sVcontains(Hi)
p440
I00
sVcontains(is)
p441
I00
sVcontains(am)
p442
I00
sVcontains(Good)
p443
I00
sVcontains(you)
p444
I00
sVcontains(Hello)
p445
I00
sVcontains(sorry)
p446
I00
sVcontains(Greatings)
p447
I00
sVcontains(out)
p448
I00
sVcontains(review)
p449
I00
sVcontains(i)
p450
I00
sVcontains(mistake)
p451
I01
sVcontains(thank)
p452
I00
sVcontains(good)
p453
I00
sVcontains(was)
p454
I00
sVcontains(my)
p455
I00
sVcontains(what)
p456
I00
sVcontains(are)
p457
I00
sVcontains(offer)
p458
I00
sVapologies
p459
tp460
a((dp461
Vcontains(apologies)
p462
I00
sVcontains(add)
p463
I00
sVcontains(call)
p464
I00
sVcontains(Morning)
p465
I00
sVcontains(wrong)
p466
I01
sVcontains(how)
p467
I00
sVcontains(that)
p468
I01
sVcontains(on)
p469
I00
sVcontains(My)
p470
I00
sVcontains(account)
p471
I00
sVcontains(the)
p472
I00
sVcontains(bye)
p473
I00
sVcontains(remove)
p474
I00
sVcontains(had)
p475
I01
sVcontains(list)
p476
I00
sVcontains(logs)
p477
I00
sVcontains(bundle)
p478
I00
sVcontains(to)
p479
I00
sVcontains(I)
p480
I01
sVcontains(Hi)
p481
I00
sVcontains(is)
p482
I00
sVcontains(am)
p483
I00
sVcontains(Good)
p484
I00
sVcontains(you)
p485
I00
sVcontains(Hello)
p486
I00
sVcontains(sorry)
p487
I00
sVcontains(Greatings)
p488
I00
sVcontains(out)
p489
I00
sVcontains(review)
p490
I00
sVcontains(i)
p491
I00
sVcontains(mistake)
p492
I00
sVcontains(thank)
p493
I00
sVcontains(good)
p494
I00
sVcontains(was)
p495
I00
sVcontains(my)
p496
I00
sVcontains(what)
p497
I00
sVcontains(are)
p498
I00
sVcontains(offer)
p499
I00
sVapologies
p500
tp501
a((dp502
Vcontains(apologies)
p503
I00
sVcontains(add)
p504
I00
sVcontains(call)
p505
I00
sVcontains(Morning)
p506
I00
sVcontains(wrong)
p507
I01
sVcontains(how)
p508
I00
sVcontains(that)
p509
I01
sVcontains(on)
p510
I01
sVcontains(My)
p511
I00
sVcontains(account)
p512
I00
sVcontains(the)
p513
I00
sVcontains(bye)
p514
I00
sVcontains(remove)
p515
I00
sVcontains(had)
p516
I00
sVcontains(list)
p517
I00
sVcontains(logs)
p518
I00
sVcontains(bundle)
p519
I00
sVcontains(to)
p520
I00
sVcontains(I)
p521
I01
sVcontains(Hi)
p522
I00
sVcontains(is)
p523
I00
sVcontains(am)
p524
I00
sVcontains(Good)
p525
I00
sVcontains(you)
p526
I00
sVcontains(Hello)
p527
I00
sVcontains(sorry)
p528
I00
sVcontains(Greatings)
p529
I00
sVcontains(out)
p530
I00
sVcontains(review)
p531
I00
sVcontains(i)
p532
I00
sVcontains(mistake)
p533
I00
sVcontains(thank)
p534
I00
sVcontains(good)
p535
I00
sVcontains(was)
p536
I01
sVcontains(my)
p537
I00
sVcontains(what)
p538
I00
sVcontains(are)
p539
I00
sVcontains(offer)
p540
I00
sVapologies
p541
tp542
a((dp543
Vcontains(apologies)
p544
I01
sVcontains(add)
p545
I00
sVcontains(call)
p546
I00
sVcontains(Morning)
p547
I00
sVcontains(wrong)
p548
I00
sVcontains(how)
p549
I00
sVcontains(that)
p550
I00
sVcontains(on)
p551
I00
sVcontains(My)
p552
I01
sVcontains(account)
p553
I00
sVcontains(the)
p554
I00
sVcontains(bye)
p555
I00
sVcontains(remove)
p556
I00
sVcontains(had)
p557
I00
sVcontains(list)
p558
I00
sVcontains(logs)
p559
I00
sVcontains(bundle)
p560
I00
sVcontains(to)
p561
I00
sVcontains(I)
p562
I00
sVcontains(Hi)
p563
I00
sVcontains(is)
p564
I00
sVcontains(am)
p565
I00
sVcontains(Good)
p566
I00
sVcontains(you)
p567
I00
sVcontains(Hello)
p568
I00
sVcontains(sorry)
p569
I00
sVcontains(Greatings)
p570
I00
sVcontains(out)
p571
I00
sVcontains(review)
p572
I00
sVcontains(i)
p573
I00
sVcontains(mistake)
p574
I00
sVcontains(thank)
p575
I00
sVcontains(good)
p576
I00
sVcontains(was)
p577
I00
sVcontains(my)
p578
I00
sVcontains(what)
p579
I00
sVcontains(are)
p580
I00
sVcontains(offer)
p581
I00
sVapologies
p582
tp583
a((dp584
Vcontains(apologies)
p585
I00
sVcontains(add)
p586
I00
sVcontains(call)
p587
I00
sVcontains(Morning)
p588
I00
sVcontains(wrong)
p589
I00
sVcontains(how)
p590
I00
sVcontains(that)
p591
I00
sVcontains(on)
p592
I00
sVcontains(My)
p593
I00
sVcontains(account)
p594
I00
sVcontains(the)
p595
I00
sVcontains(bye)
p596
I00
sVcontains(remove)
p597
I00
sVcontains(had)
p598
I00
sVcontains(list)
p599
I00
sVcontains(logs)
p600
I00
sVcontains(bundle)
p601
I00
sVcontains(to)
p602
I00
sVcontains(I)
p603
I00
sVcontains(Hi)
p604
I00
sVcontains(is)
p605
I00
sVcontains(am)
p606
I01
sVcontains(Good)
p607
I00
sVcontains(you)
p608
I00
sVcontains(Hello)
p609
I00
sVcontains(sorry)
p610
I01
sVcontains(Greatings)
p611
I00
sVcontains(out)
p612
I00
sVcontains(review)
p613
I00
sVcontains(i)
p614
I01
sVcontains(mistake)
p615
I00
sVcontains(thank)
p616
I00
sVcontains(good)
p617
I00
sVcontains(was)
p618
I00
sVcontains(my)
p619
I00
sVcontains(what)
p620
I00
sVcontains(are)
p621
I00
sVcontains(offer)
p622
I00
sVapologies
p623
tp624
a((dp625
Vcontains(apologies)
p626
I00
sVcontains(add)
p627
I00
sVcontains(call)
p628
I00
sVcontains(Morning)
p629
I00
sVcontains(wrong)
p630
I00
sVcontains(how)
p631
I00
sVcontains(that)
p632
I00
sVcontains(on)
p633
I00
sVcontains(My)
p634
I00
sVcontains(account)
p635
I00
sVcontains(the)
p636
I00
sVcontains(bye)
p637
I00
sVcontains(remove)
p638
I00
sVcontains(had)
p639
I00
sVcontains(list)
p640
I00
sVcontains(logs)
p641
I00
sVcontains(bundle)
p642
I00
sVcontains(to)
p643
I00
sVcontains(I)
p644
I00
sVcontains(Hi)
p645
I00
sVcontains(is)
p646
I00
sVcontains(am)
p647
I00
sVcontains(Good)
p648
I00
sVcontains(you)
p649
I01
sVcontains(Hello)
p650
I00
sVcontains(sorry)
p651
I00
sVcontains(Greatings)
p652
I00
sVcontains(out)
p653
I00
sVcontains(review)
p654
I00
sVcontains(i)
p655
I00
sVcontains(mistake)
p656
I00
sVcontains(thank)
p657
I01
sVcontains(good)
p658
I00
sVcontains(was)
p659
I00
sVcontains(my)
p660
I00
sVcontains(what)
p661
I00
sVcontains(are)
p662
I00
sVcontains(offer)
p663
I00
sVthankyou
p664
tp665
a((dp666
Vcontains(apologies)
p667
I00
sVcontains(add)
p668
I00
sVcontains(call)
p669
I00
sVcontains(Morning)
p670
I00
sVcontains(wrong)
p671
I00
sVcontains(how)
p672
I00
sVcontains(that)
p673
I00
sVcontains(on)
p674
I00
sVcontains(My)
p675
I00
sVcontains(account)
p676
I00
sVcontains(the)
p677
I00
sVcontains(bye)
p678
I01
sVcontains(remove)
p679
I00
sVcontains(had)
p680
I00
sVcontains(list)
p681
I00
sVcontains(logs)
p682
I00
sVcontains(bundle)
p683
I00
sVcontains(to)
p684
I00
sVcontains(I)
p685
I00
sVcontains(Hi)
p686
I00
sVcontains(is)
p687
I00
sVcontains(am)
p688
I00
sVcontains(Good)
p689
I00
sVcontains(you)
p690
I00
sVcontains(Hello)
p691
I00
sVcontains(sorry)
p692
I00
sVcontains(Greatings)
p693
I00
sVcontains(out)
p694
I00
sVcontains(review)
p695
I00
sVcontains(i)
p696
I00
sVcontains(mistake)
p697
I00
sVcontains(thank)
p698
I00
sVcontains(good)
p699
I00
sVcontains(was)
p700
I00
sVcontains(my)
p701
I00
sVcontains(what)
p702
I00
sVcontains(are)
p703
I00
sVcontains(offer)
p704
I00
sVthankyou
p705
tp706
a((dp707
Vcontains(apologies)
p708
I00
sVcontains(add)
p709
I00
sVcontains(call)
p710
I00
sVcontains(Morning)
p711
I00
sVcontains(wrong)
p712
I00
sVcontains(how)
p713
I00
sVcontains(that)
p714
I00
sVcontains(on)
p715
I00
sVcontains(My)
p716
I00
sVcontains(account)
p717
I00
sVcontains(the)
p718
I00
sVcontains(bye)
p719
I01
sVcontains(remove)
p720
I00
sVcontains(had)
p721
I00
sVcontains(list)
p722
I00
sVcontains(logs)
p723
I00
sVcontains(bundle)
p724
I00
sVcontains(to)
p725
I00
sVcontains(I)
p726
I00
sVcontains(Hi)
p727
I00
sVcontains(is)
p728
I00
sVcontains(am)
p729
I00
sVcontains(Good)
p730
I00
sVcontains(you)
p731
I00
sVcontains(Hello)
p732
I00
sVcontains(sorry)
p733
I00
sVcontains(Greatings)
p734
I00
sVcontains(out)
p735
I00
sVcontains(review)
p736
I00
sVcontains(i)
p737
I00
sVcontains(mistake)
p738
I00
sVcontains(thank)
p739
I00
sVcontains(good)
p740
I01
sVcontains(was)
p741
I00
sVcontains(my)
p742
I00
sVcontains(what)
p743
I00
sVcontains(are)
p744
I00
sVcontains(offer)
p745
I00
sVthankyou
p746
tp747
a((dp748
Vcontains(apologies)
p749
I00
sVcontains(add)
p750
I00
sVcontains(call)
p751
I01
sVcontains(Morning)
p752
I00
sVcontains(wrong)
p753
I00
sVcontains(how)
p754
I00
sVcontains(that)
p755
I00
sVcontains(on)
p756
I00
sVcontains(My)
p757
I00
sVcontains(account)
p758
I00
sVcontains(the)
p759
I01
sVcontains(bye)
p760
I00
sVcontains(remove)
p761
I00
sVcontains(had)
p762
I00
sVcontains(list)
p763
I00
sVcontains(logs)
p764
I01
sVcontains(bundle)
p765
I00
sVcontains(to)
p766
I00
sVcontains(I)
p767
I00
sVcontains(Hi)
p768
I00
sVcontains(is)
p769
I00
sVcontains(am)
p770
I00
sVcontains(Good)
p771
I00
sVcontains(you)
p772
I00
sVcontains(Hello)
p773
I00
sVcontains(sorry)
p774
I00
sVcontains(Greatings)
p775
I00
sVcontains(out)
p776
I00
sVcontains(review)
p777
I00
sVcontains(i)
p778
I00
sVcontains(mistake)
p779
I00
sVcontains(thank)
p780
I00
sVcontains(good)
p781
I00
sVcontains(was)
p782
I00
sVcontains(my)
p783
I00
sVcontains(what)
p784
I01
sVcontains(are)
p785
I01
sVcontains(offer)
p786
I00
sVcalllogs
p787
tp788
a((dp789
Vcontains(apologies)
p790
I00
sVcontains(add)
p791
I00
sVcontains(call)
p792
I01
sVcontains(Morning)
p793
I00
sVcontains(wrong)
p794
I00
sVcontains(how)
p795
I00
sVcontains(that)
p796
I00
sVcontains(on)
p797
I00
sVcontains(My)
p798
I00
sVcontains(account)
p799
I00
sVcontains(the)
p800
I00
sVcontains(bye)
p801
I00
sVcontains(remove)
p802
I00
sVcontains(had)
p803
I00
sVcontains(list)
p804
I01
sVcontains(logs)
p805
I01
sVcontains(bundle)
p806
I00
sVcontains(to)
p807
I00
sVcontains(I)
p808
I00
sVcontains(Hi)
p809
I00
sVcontains(is)
p810
I00
sVcontains(am)
p811
I00
sVcontains(Good)
p812
I00
sVcontains(you)
p813
I00
sVcontains(Hello)
p814
I00
sVcontains(sorry)
p815
I00
sVcontains(Greatings)
p816
I00
sVcontains(out)
p817
I01
sVcontains(review)
p818
I00
sVcontains(i)
p819
I00
sVcontains(mistake)
p820
I00
sVcontains(thank)
p821
I00
sVcontains(good)
p822
I00
sVcontains(was)
p823
I00
sVcontains(my)
p824
I01
sVcontains(what)
p825
I00
sVcontains(are)
p826
I00
sVcontains(offer)
p827
I00
sVcalllogs
p828
tp829
a((dp830
Vcontains(apologies)
p831
I00
sVcontains(add)
p832
I00
sVcontains(call)
p833
I00
sVcontains(Morning)
p834
I00
sVcontains(wrong)
p835
I00
sVcontains(how)
p836
I00
sVcontains(that)
p837
I00
sVcontains(on)
p838
I00
sVcontains(My)
p839
I00
sVcontains(account)
p840
I00
sVcontains(the)
p841
I01
sVcontains(bye)
p842
I00
sVcontains(remove)
p843
I00
sVcontains(had)
p844
I00
sVcontains(list)
p845
I01
sVcontains(logs)
p846
I00
sVcontains(bundle)
p847
I01
sVcontains(to)
p848
I00
sVcontains(I)
p849
I00
sVcontains(Hi)
p850
I00
sVcontains(is)
p851
I00
sVcontains(am)
p852
I00
sVcontains(Good)
p853
I00
sVcontains(you)
p854
I00
sVcontains(Hello)
p855
I00
sVcontains(sorry)
p856
I00
sVcontains(Greatings)
p857
I00
sVcontains(out)
p858
I01
sVcontains(review)
p859
I00
sVcontains(i)
p860
I00
sVcontains(mistake)
p861
I00
sVcontains(thank)
p862
I00
sVcontains(good)
p863
I00
sVcontains(was)
p864
I00
sVcontains(my)
p865
I00
sVcontains(what)
p866
I00
sVcontains(are)
p867
I00
sVcontains(offer)
p868
I01
sVbundleoffer
p869
tp870
a((dp871
Vcontains(apologies)
p872
I00
sVcontains(add)
p873
I00
sVcontains(call)
p874
I00
sVcontains(Morning)
p875
I00
sVcontains(wrong)
p876
I00
sVcontains(how)
p877
I00
sVcontains(that)
p878
I00
sVcontains(on)
p879
I00
sVcontains(My)
p880
I00
sVcontains(account)
p881
I00
sVcontains(the)
p882
I00
sVcontains(bye)
p883
I00
sVcontains(remove)
p884
I00
sVcontains(had)
p885
I00
sVcontains(list)
p886
I00
sVcontains(logs)
p887
I00
sVcontains(bundle)
p888
I01
sVcontains(to)
p889
I00
sVcontains(I)
p890
I00
sVcontains(Hi)
p891
I00
sVcontains(is)
p892
I01
sVcontains(am)
p893
I00
sVcontains(Good)
p894
I00
sVcontains(you)
p895
I00
sVcontains(Hello)
p896
I00
sVcontains(sorry)
p897
I00
sVcontains(Greatings)
p898
I00
sVcontains(out)
p899
I00
sVcontains(review)
p900
I00
sVcontains(i)
p901
I00
sVcontains(mistake)
p902
I00
sVcontains(thank)
p903
I00
sVcontains(good)
p904
I00
sVcontains(was)
p905
I00
sVcontains(my)
p906
I01
sVcontains(what)
p907
I01
sVcontains(are)
p908
I00
sVcontains(offer)
p909
I01
sVbundleoffer
p910
tp911
asS'train_set'
p912
(lp913
(VHi
p914
g49
tp915
a(VGood Morning
p916
g90
tp917
a(VHello
p918
g131
tp919
a(VGreatings
p920
g172
tp921
a(Vwhat is my account review
p922
g213
tp923
a(Vmy account review
p924
g254
tp925
a(Vhow to add my account
p926
g295
tp927
a(Vadd my account
p928
g336
tp929
a(Vhow to remove my account
p930
g377
tp931
a(Vremove my account
p932
g418
tp933
a(VMy mistake
p934
g459
tp935
a(VI had that wrong.
p936
g500
tp937
a(VI was wrong on that
p938
g541
tp939
a(VMy apologies.
p940
g582
tp941
a(Vi am sorry
p942
g623
tp943
a(Vthank you
p944
g664
tp945
a(Vbye
p946
g705
tp947
a(Vgood bye
p948
g746
tp949
a(Vwhat are the call logs
p950
g787
tp951
a(Vlist out my call logs
p952
g828
tp953
a(Vlist out the bundle offer
p954
g869
tp955
a(Vwhat is my bundle offer
p956
g910
tp957
asS'feature_extractor'
p958
ctextblob.classifiers
basic_extractor
p959
sb.