ccopy_reg
_reconstructor
p0
(ctextblob.classifiers
NaiveBayesClassifier
p1
c__builtin__
object
p2
Ntp3
Rp4
(dp5
S'format_kwargs'
p6
(dp7
sS'train_features'
p8
(lp9
((dp10
Vcontains(jegging)
p11
I00
sVcontains(is)
p12
I01
sVcontains(of)
p13
I00
sVcontains(current)
p14
I00
sVcontains(polo)
p15
I00
sVcontains(status)
p16
I01
sVcontains(the)
p17
I00
sVcontains(What)
p18
I01
sVcontains(my)
p19
I01
sVcontains(order)
p20
I01
sVcontains(latest)
p21
I00
sVcontains(price)
p22
I00
sVcontains(My)
p23
I00
sVOrderstatus
p24
tp25
a((dp26
Vcontains(jegging)
p27
I00
sVcontains(is)
p28
I01
sVcontains(of)
p29
I00
sVcontains(current)
p30
I00
sVcontains(polo)
p31
I00
sVcontains(status)
p32
I01
sVcontains(the)
p33
I00
sVcontains(What)
p34
I01
sVcontains(my)
p35
I01
sVcontains(order)
p36
I01
sVcontains(latest)
p37
I01
sVcontains(price)
p38
I00
sVcontains(My)
p39
I00
sVOrderstatus
p40
tp41
a((dp42
Vcontains(jegging)
p43
I00
sVcontains(is)
p44
I00
sVcontains(of)
p45
I00
sVcontains(current)
p46
I01
sVcontains(polo)
p47
I00
sVcontains(status)
p48
I01
sVcontains(the)
p49
I00
sVcontains(What)
p50
I00
sVcontains(my)
p51
I00
sVcontains(order)
p52
I01
sVcontains(latest)
p53
I00
sVcontains(price)
p54
I00
sVcontains(My)
p55
I01
sVOrderstatus
p56
tp57
a((dp58
Vcontains(jegging)
p59
I00
sVcontains(is)
p60
I01
sVcontains(of)
p61
I01
sVcontains(current)
p62
I00
sVcontains(polo)
p63
I01
sVcontains(status)
p64
I00
sVcontains(the)
p65
I01
sVcontains(What)
p66
I01
sVcontains(my)
p67
I00
sVcontains(order)
p68
I00
sVcontains(latest)
p69
I00
sVcontains(price)
p70
I01
sVcontains(My)
p71
I00
sVProductprice
p72
tp73
a((dp74
Vcontains(jegging)
p75
I01
sVcontains(is)
p76
I01
sVcontains(of)
p77
I01
sVcontains(current)
p78
I00
sVcontains(polo)
p79
I00
sVcontains(status)
p80
I00
sVcontains(the)
p81
I01
sVcontains(What)
p82
I01
sVcontains(my)
p83
I00
sVcontains(order)
p84
I00
sVcontains(latest)
p85
I00
sVcontains(price)
p86
I01
sVcontains(My)
p87
I00
sVProductprice
p88
tp89
asS'train_set'
p90
(lp91
(VWhat is my order status.
p92
g24
tp93
a(VWhat is my latest order status!
p94
g40
tp95
a(VMy current order status
p96
g56
tp97
a(VWhat is the price of polo
p98
g72
tp99
a(VWhat is the price of jegging
p100
g88
tp101
asS'feature_extractor'
p102
ctextblob.classifiers
basic_extractor
p103
sb.